target datalayout = "e-m:e-p270:32:32-p271:32:32-p272:64:64-i64:64-i128:128-f80:128-n8:16:32:64-S128"
target triple = "x86_64-pc-linux-gnu"

%struct.AVChannelLayout = type { i32, i32, %union.anon.0, ptr }
%union.anon.0 = type { i64 }
%struct.AVCodecContext = type { ptr, i32, i32, ptr, i32, i32, ptr, ptr, ptr, i64, i32, i32, ptr, i32, %struct.AVRational, %struct.AVRational, %struct.AVRational, i32, i32, i32, i32, i32, %struct.AVRational, i32, i32, i32, i32, i32, i32, i32, i32, i32, i32, i32, ptr, ptr, i32, float, float, float, float, float, float, float, float, float, i32, i32, i32, i32, i32, i32, i32, i32, i32, i32, i32, i32, ptr, ptr, ptr, i32, i32, i32, i32, i32, i32, i32, i32, i32, i32, %struct.AVChannelLayout, i32, i32, i32, i32, i32, i32, i32, i32, ptr, i32, i32, i32, float, float, i32, i32, i32, i32, i32, ptr, i64, i64, float, float, i32, i32, ptr, ptr, i32, i32, i32, i32, i32, ptr, ptr, ptr, ptr, i32, i32, [8 x i64], i32, i32, i32, i32, i32, i32, i32, ptr, ptr, i32, i32, i32, i32, i32, i32, i32, i32, i32, i32, ptr, ptr, i32, i32, ptr, ptr, ptr, ptr, i32, i32, i64, i32, i32, i64, ptr, i64, ptr, i32, ptr, i32 }
%struct.AVRational = type { i32, i32 }
%struct.QCELPContext = type { %struct.GetBitContext, i32, %struct.QCELPFrame, i8, i8, [10 x float], [10 x float], [303 x float], [303 x float], [180 x float], [170 x float], float, [2 x i32], i32, [4 x float], [4 x i8], i16, i8, [10 x float], float, float }
%struct.GetBitContext = type { ptr, ptr, i32, i32, i32 }
%struct.QCELPFrame = type { [16 x i8], [16 x i8], [16 x i8], [4 x i8], [4 x i8], [4 x i8], [10 x i8], i8 }

; Function Attrs: cold nounwind optsize uwtable
define internal i32 @qcelp_decode_init(ptr noundef %0) #0 {
  %2 = alloca ptr, align 8
  %3 = alloca ptr, align 8
  %4 = alloca i32, align 4
  %5 = alloca %struct.AVChannelLayout, align 8
  store ptr %0, ptr %2, align 8, !tbaa !4
  call void @llvm.lifetime.start.p0(i64 8, ptr %3) #9
  %6 = load ptr, ptr %2, align 8, !tbaa !4
  %7 = getelementptr inbounds nuw %struct.AVCodecContext, ptr %6, i32 0, i32 6
  %8 = load ptr, ptr %7, align 8, !tbaa !9
  store ptr %8, ptr %3, align 8, !tbaa !29
  call void @llvm.lifetime.start.p0(i64 4, ptr %4) #9
  %9 = load ptr, ptr %2, align 8, !tbaa !4
  %10 = getelementptr inbounds nuw %struct.AVCodecContext, ptr %9, i32 0, i32 71
  call void @av_channel_layout_uninit(ptr noundef %10)
  %11 = load ptr, ptr %2, align 8, !tbaa !4
  %12 = getelementptr inbounds nuw %struct.AVCodecContext, ptr %11, i32 0, i32 71
  %13 = getelementptr inbounds nuw %struct.AVChannelLayout, ptr %5, i32 0, i32 0
  store i32 1, ptr %13, align 8, !tbaa !31
  %14 = getelementptr inbounds nuw %struct.AVChannelLayout, ptr %5, i32 0, i32 1
  store i32 1, ptr %14, align 4, !tbaa !32
  %15 = getelementptr inbounds nuw %struct.AVChannelLayout, ptr %5, i32 0, i32 2
  store i64 4, ptr %15, align 8, !tbaa !33
  %16 = getelementptr inbounds nuw %struct.AVChannelLayout, ptr %5, i32 0, i32 3
  store ptr null, ptr %16, align 8, !tbaa !34
  call void @llvm.memcpy.p0.p0.i64(ptr align 8 %12, ptr align 8 %5, i64 24, i1 false), !tbaa.struct !35
  %17 = load ptr, ptr %2, align 8, !tbaa !4
  %18 = getelementptr inbounds nuw %struct.AVCodecContext, ptr %17, i32 0, i32 70
  store i32 3, ptr %18, align 4, !tbaa !38
  store i32 0, ptr %4, align 4, !tbaa !36
  br label %19

19:                                               ; preds = %33, %1
  %20 = load i32, ptr %4, align 4, !tbaa !36
  %21 = icmp slt i32 %20, 10
  br i1 %21, label %22, label %36

22:                                               ; preds = %19
  %23 = load i32, ptr %4, align 4, !tbaa !36
  %24 = add nsw i32 %23, 1
  %25 = sitofp i32 %24 to double
  %26 = fdiv nsz double %25, 1.100000e+01
  %27 = fptrunc nsz double %26 to float
  %28 = load ptr, ptr %3, align 8, !tbaa !29
  %29 = getelementptr inbounds nuw %struct.QCELPContext, ptr %28, i32 0, i32 5
  %30 = load i32, ptr %4, align 4, !tbaa !36
  %31 = sext i32 %30 to i64
  %32 = getelementptr inbounds [10 x float], ptr %29, i64 0, i64 %31
  store float %27, ptr %32, align 4, !tbaa !39
  br label %33

33:                                               ; preds = %22
  %34 = load i32, ptr %4, align 4, !tbaa !36
  %35 = add nsw i32 %34, 1
  store i32 %35, ptr %4, align 4, !tbaa !36
  br label %19, !llvm.loop !40

36:                                               ; preds = %19
  call void @llvm.lifetime.end.p0(i64 4, ptr %4) #9
  call void @llvm.lifetime.end.p0(i64 8, ptr %3) #9
  ret i32 0
}