; Function Attrs: cold nounwind optsize uwtable
define internal noundef i32 @qcelp_decode_init(ptr noundef %0) #0 {
  %2 = getelementptr inbounds nuw i8, ptr %0, i64 32
  %3 = load ptr, ptr %2, align 8, !tbaa !4
  %4 = getelementptr inbounds nuw i8, ptr %0, i64 352
  tail call void @av_channel_layout_uninit(ptr noundef nonnull %4) #9
  store i32 1, ptr %4, align 8, !tbaa !27
  %.sroa.2.0..sroa_idx = getelementptr inbounds nuw i8, ptr %0, i64 356
  store i32 1, ptr %.sroa.2.0..sroa_idx, align 4, !tbaa !27
  %.sroa.3.0..sroa_idx = getelementptr inbounds nuw i8, ptr %0, i64 360
  store i64 4, ptr %.sroa.3.0..sroa_idx, align 8, !tbaa !28
  %.sroa.4.0..sroa_idx = getelementptr inbounds nuw i8, ptr %0, i64 368
  store ptr null, ptr %.sroa.4.0..sroa_idx, align 8, !tbaa !29
  %5 = getelementptr inbounds nuw i8, ptr %0, i64 348
  store i32 3, ptr %5, align 4, !tbaa !30
  %6 = getelementptr inbounds nuw i8, ptr %3, i64 112
  br label %7

7:                                                ; preds = %1, %7
  %indvars.iv = phi i64 [ 0, %1 ], [ %indvars.iv.next, %7 ]
  %indvars.iv.next = add nuw nsw i64 %indvars.iv, 1
  %8 = trunc nuw nsw i64 %indvars.iv.next to i32
  %9 = uitofp nneg i32 %8 to double
  %10 = fdiv nsz double %9, 1.100000e+01
  %11 = fptrunc nsz double %10 to float
  %12 = getelementptr inbounds nuw [10 x float], ptr %6, i64 0, i64 %indvars.iv
  store float %11, ptr %12, align 4, !tbaa !31
  %exitcond.not = icmp eq i64 %indvars.iv.next, 10
  br i1 %exitcond.not, label %13, label %7, !llvm.loop !32

13:                                               ; preds = %7
  ret i32 0
}